target datalayout = "e-m:e-p270:32:32-p271:32:32-p272:64:64-i64:64-i128:128-f80:128-n8:16:32:64-S128"
target triple = "x86_64-pc-linux-gnu"

%struct._zval_struct = type { %union._zend_value, %union.anon, %union.anon.2 }
%union._zend_value = type { i64 }
%union.anon = type { i32 }
%union.anon.2 = type { i32 }
%struct._zend_constant = type { %struct._zval_struct, ptr, ptr }

@zend_string_init_interned = external global ptr, align 8

; Function Attrs: nounwind uwtable
define dso_local void @zend_register_double_constant(ptr noundef %0, i64 noundef %1, double noundef %2, i32 noundef %3, i32 noundef %4) #0 {
  %6 = alloca ptr, align 8
  %7 = alloca i64, align 8
  %8 = alloca double, align 8
  %9 = alloca i32, align 4
  %10 = alloca i32, align 4
  %11 = alloca %struct._zend_constant, align 8
  %12 = alloca ptr, align 8
  store ptr %0, ptr %6, align 8, !tbaa !56
  store i64 %1, ptr %7, align 8, !tbaa !57
  store double %2, ptr %8, align 8, !tbaa !60
  store i32 %3, ptr %9, align 4, !tbaa !22
  store i32 %4, ptr %10, align 4, !tbaa !22
  call void @llvm.lifetime.start.p0(i64 32, ptr %11) #12
  br label %13

13:                                               ; preds = %5
  call void @llvm.lifetime.start.p0(i64 8, ptr %12) #12
  %14 = getelementptr inbounds nuw %struct._zend_constant, ptr %11, i32 0, i32 0
  store ptr %14, ptr %12, align 8, !tbaa !4
  %15 = load double, ptr %8, align 8, !tbaa !60
  %16 = load ptr, ptr %12, align 8, !tbaa !4
  %17 = getelementptr inbounds nuw %struct._zval_struct, ptr %16, i32 0, i32 0
  store double %15, ptr %17, align 8, !tbaa !9
  %18 = load ptr, ptr %12, align 8, !tbaa !4
  %19 = getelementptr inbounds nuw %struct._zval_struct, ptr %18, i32 0, i32 1
  store i32 5, ptr %19, align 8, !tbaa !9
  call void @llvm.lifetime.end.p0(i64 8, ptr %12) #12
  br label %20

20:                                               ; preds = %13
  br label %21

21:                                               ; preds = %20
  br label %22

22:                                               ; preds = %21
  %23 = load i32, ptr %9, align 4, !tbaa !22
  %24 = and i32 %23, 255
  %25 = load i32, ptr %10, align 4, !tbaa !22
  %26 = shl i32 %25, 8
  %27 = or i32 %24, %26
  %28 = getelementptr inbounds nuw %struct._zend_constant, ptr %11, i32 0, i32 0
  %29 = getelementptr inbounds nuw %struct._zval_struct, ptr %28, i32 0, i32 2
  store i32 %27, ptr %29, align 4, !tbaa !9
  br label %30

30:                                               ; preds = %22
  br label %31

31:                                               ; preds = %30
  %32 = load ptr, ptr @zend_string_init_interned, align 8, !tbaa !54
  %33 = load ptr, ptr %6, align 8, !tbaa !56
  %34 = load i64, ptr %7, align 8, !tbaa !57
  %35 = load i32, ptr %9, align 4, !tbaa !22
  %36 = and i32 %35, 1
  %37 = icmp ne i32 %36, 0
  %38 = call ptr %32(ptr noundef %33, i64 noundef %34, i1 noundef zeroext %37)
  %39 = getelementptr inbounds nuw %struct._zend_constant, ptr %11, i32 0, i32 1
  store ptr %38, ptr %39, align 8, !tbaa !12
  %40 = call i32 @zend_register_constant(ptr noundef %11)
  call void @llvm.lifetime.end.p0(i64 32, ptr %11) #12
  ret void
}